target datalayout = "e-m:e-p270:32:32-p271:32:32-p272:64:64-i64:64-i128:128-f80:128-n8:16:32:64-S128"
target triple = "x86_64-pc-linux-gnu"

%struct.ID3v2EncContext = type { i32, i64, i32 }

; Function Attrs: nounwind uwtable
define internal void @id3v2_put_size(ptr noundef %0, i32 noundef %1) #0 {
  %3 = alloca ptr, align 8
  %4 = alloca i32, align 4
  store ptr %0, ptr %3, align 8, !tbaa !9
  store i32 %1, ptr %4, align 4, !tbaa !11
  %5 = load ptr, ptr %3, align 8, !tbaa !9
  %6 = load i32, ptr %4, align 4, !tbaa !11
  %7 = ashr i32 %6, 21
  %8 = and i32 %7, 127
  call void @avio_w8(ptr noundef %5, i32 noundef %8)
  %9 = load ptr, ptr %3, align 8, !tbaa !9
  %10 = load i32, ptr %4, align 4, !tbaa !11
  %11 = ashr i32 %10, 14
  %12 = and i32 %11, 127
  call void @avio_w8(ptr noundef %9, i32 noundef %12)
  %13 = load ptr, ptr %3, align 8, !tbaa !9
  %14 = load i32, ptr %4, align 4, !tbaa !11
  %15 = ashr i32 %14, 7
  %16 = and i32 %15, 127
  call void @avio_w8(ptr noundef %13, i32 noundef %16)
  %17 = load ptr, ptr %3, align 8, !tbaa !9
  %18 = load i32, ptr %4, align 4, !tbaa !11
  %19 = and i32 %18, 127
  call void @avio_w8(ptr noundef %17, i32 noundef %19)
  ret void
}

; Function Attrs: nounwind uwtable
define internal void @id3v2_encode_string(ptr noundef %0, ptr noundef %1, i32 noundef %2) #0 {
  %4 = alloca ptr, align 8
  %5 = alloca ptr, align 8
  %6 = alloca i32, align 4
  %7 = alloca ptr, align 8
  store ptr %0, ptr %4, align 8, !tbaa !9
  store ptr %1, ptr %5, align 8, !tbaa !13
  store i32 %2, ptr %6, align 4, !tbaa !11
  call void @llvm.lifetime.start.p0(i64 8, ptr %7) #11
  %8 = load i32, ptr %6, align 4, !tbaa !11
  %9 = icmp eq i32 %8, 1
  br i1 %9, label %10, label %12

10:                                               ; preds = %3
  %11 = load ptr, ptr %4, align 8, !tbaa !9
  call void @avio_wl16(ptr noundef %11, i32 noundef 65279)
  store ptr @avio_put_str16le, ptr %7, align 8, !tbaa !82
  br label %13

12:                                               ; preds = %3
  store ptr @avio_put_str, ptr %7, align 8, !tbaa !82
  br label %13

13:                                               ; preds = %12, %10
  %14 = load ptr, ptr %7, align 8, !tbaa !82
  %15 = load ptr, ptr %4, align 8, !tbaa !9
  %16 = load ptr, ptr %5, align 8, !tbaa !13
  %17 = call i32 %14(ptr noundef %15, ptr noundef %16)
  call void @llvm.lifetime.end.p0(i64 8, ptr %7) #11
  ret void
}

; Function Attrs: nounwind uwtable
define internal i32 @string_is_ascii(ptr noundef %0) #0 {
  %2 = alloca ptr, align 8
  store ptr %0, ptr %2, align 8, !tbaa !13
  br label %3

3:                                                ; preds = %15, %1
  %4 = load ptr, ptr %2, align 8, !tbaa !13
  %5 = load i8, ptr %4, align 1, !tbaa !18
  %6 = zext i8 %5 to i32
  %7 = icmp ne i32 %6, 0
  br i1 %7, label %8, label %13

8:                                                ; preds = %3
  %9 = load ptr, ptr %2, align 8, !tbaa !13
  %10 = load i8, ptr %9, align 1, !tbaa !18
  %11 = zext i8 %10 to i32
  %12 = icmp slt i32 %11, 128
  br label %13

13:                                               ; preds = %8, %3
  %14 = phi i1 [ false, %3 ], [ %12, %8 ]
  br i1 %14, label %15, label %18

15:                                               ; preds = %13
  %16 = load ptr, ptr %2, align 8, !tbaa !13
  %17 = getelementptr inbounds nuw i8, ptr %16, i32 1
  store ptr %17, ptr %2, align 8, !tbaa !13
  br label %3, !llvm.loop !81

18:                                               ; preds = %13
  %19 = load ptr, ptr %2, align 8, !tbaa !13
  %20 = load i8, ptr %19, align 1, !tbaa !18
  %21 = icmp ne i8 %20, 0
  %22 = xor i1 %21, true
  %23 = zext i1 %22 to i32
  ret i32 %23
}

; Function Attrs: nounwind uwtable
define internal i32 @id3v2_put_ttag(ptr noundef %0, ptr noundef %1, ptr noundef %2, ptr noundef %3, i32 noundef %4, i32 noundef %5) #0 {
  %7 = alloca i32, align 4
  %8 = alloca ptr, align 8
  %9 = alloca ptr, align 8
  %10 = alloca ptr, align 8
  %11 = alloca ptr, align 8
  %12 = alloca i32, align 4
  %13 = alloca i32, align 4
  %14 = alloca i32, align 4
  %15 = alloca i32, align 4
  %16 = alloca ptr, align 8
  %17 = alloca ptr, align 8
  %18 = alloca i32, align 4
  store ptr %0, ptr %8, align 8, !tbaa !4
  store ptr %1, ptr %9, align 8, !tbaa !9
  store ptr %2, ptr %10, align 8, !tbaa !13
  store ptr %3, ptr %11, align 8, !tbaa !13
  store i32 %4, ptr %12, align 4, !tbaa !11
  store i32 %5, ptr %13, align 4, !tbaa !11
  call void @llvm.lifetime.start.p0(i64 4, ptr %14) #11
  call void @llvm.lifetime.start.p0(i64 4, ptr %15) #11
  call void @llvm.lifetime.start.p0(i64 8, ptr %16) #11
  call void @llvm.lifetime.start.p0(i64 8, ptr %17) #11
  %19 = call i32 @avio_open_dyn_buf(ptr noundef %17)
  store i32 %19, ptr %15, align 4, !tbaa !11
  %20 = icmp slt i32 %19, 0
  br i1 %20, label %21, label %23

21:                                               ; preds = %6
  %22 = load i32, ptr %15, align 4, !tbaa !11
  store i32 %22, ptr %7, align 4
  store i32 1, ptr %18, align 4
  br label %72

23:                                               ; preds = %6
  %24 = load i32, ptr %13, align 4, !tbaa !11
  %25 = icmp eq i32 %24, 1
  br i1 %25, label %26, label %38

26:                                               ; preds = %23
  %27 = load ptr, ptr %10, align 8, !tbaa !13
  %28 = call i32 @string_is_ascii(ptr noundef %27)
  %29 = icmp ne i32 %28, 0
  br i1 %29, label %30, label %38

30:                                               ; preds = %26
  %31 = load ptr, ptr %11, align 8, !tbaa !13
  %32 = icmp ne ptr %31, null
  br i1 %32, label %33, label %37

33:                                               ; preds = %30
  %34 = load ptr, ptr %11, align 8, !tbaa !13
  %35 = call i32 @string_is_ascii(ptr noundef %34)
  %36 = icmp ne i32 %35, 0
  br i1 %36, label %37, label %38

37:                                               ; preds = %33, %30
  store i32 0, ptr %13, align 4, !tbaa !11
  br label %38

38:                                               ; preds = %37, %33, %26, %23
  %39 = load ptr, ptr %17, align 8, !tbaa !9
  %40 = load i32, ptr %13, align 4, !tbaa !11
  call void @avio_w8(ptr noundef %39, i32 noundef %40)
  %41 = load ptr, ptr %17, align 8, !tbaa !9
  %42 = load ptr, ptr %10, align 8, !tbaa !13
  %43 = load i32, ptr %13, align 4, !tbaa !11
  call void @id3v2_encode_string(ptr noundef %41, ptr noundef %42, i32 noundef %43)
  %44 = load ptr, ptr %11, align 8, !tbaa !13
  %45 = icmp ne ptr %44, null
  br i1 %45, label %46, label %50

46:                                               ; preds = %38
  %47 = load ptr, ptr %17, align 8, !tbaa !9
  %48 = load ptr, ptr %11, align 8, !tbaa !13
  %49 = load i32, ptr %13, align 4, !tbaa !11
  call void @id3v2_encode_string(ptr noundef %47, ptr noundef %48, i32 noundef %49)
  br label %50

50:                                               ; preds = %46, %38
  %51 = load ptr, ptr %17, align 8, !tbaa !9
  %52 = call i32 @avio_get_dyn_buf(ptr noundef %51, ptr noundef %16)
  store i32 %52, ptr %14, align 4, !tbaa !11
  %53 = load ptr, ptr %9, align 8, !tbaa !9
  %54 = load i32, ptr %12, align 4, !tbaa !11
  call void @avio_wb32(ptr noundef %53, i32 noundef %54)
  %55 = load ptr, ptr %8, align 8, !tbaa !4
  %56 = getelementptr inbounds nuw %struct.ID3v2EncContext, ptr %55, i32 0, i32 0
  %57 = load i32, ptr %56, align 8, !tbaa !15
  %58 = icmp eq i32 %57, 3
  br i1 %58, label %59, label %62

59:                                               ; preds = %50
  %60 = load ptr, ptr %9, align 8, !tbaa !9
  %61 = load i32, ptr %14, align 4, !tbaa !11
  call void @avio_wb32(ptr noundef %60, i32 noundef %61)
  br label %65

62:                                               ; preds = %50
  %63 = load ptr, ptr %9, align 8, !tbaa !9
  %64 = load i32, ptr %14, align 4, !tbaa !11
  call void @id3v2_put_size(ptr noundef %63, i32 noundef %64)
  br label %65

65:                                               ; preds = %62, %59
  %66 = load ptr, ptr %9, align 8, !tbaa !9
  call void @avio_wb16(ptr noundef %66, i32 noundef 0)
  %67 = load ptr, ptr %9, align 8, !tbaa !9
  %68 = load ptr, ptr %16, align 8, !tbaa !13
  %69 = load i32, ptr %14, align 4, !tbaa !11
  call void @avio_write(ptr noundef %67, ptr noundef %68, i32 noundef %69)
  call void @ffio_free_dyn_buf(ptr noundef %17)
  %70 = load i32, ptr %14, align 4, !tbaa !11
  %71 = add nsw i32 %70, 10
  store i32 %71, ptr %7, align 4
  store i32 1, ptr %18, align 4
  br label %72

72:                                               ; preds = %65, %21
  call void @llvm.lifetime.end.p0(i64 8, ptr %17) #11
  call void @llvm.lifetime.end.p0(i64 8, ptr %16) #11
  call void @llvm.lifetime.end.p0(i64 4, ptr %15) #11
  call void @llvm.lifetime.end.p0(i64 4, ptr %14) #11
  %73 = load i32, ptr %7, align 4
  ret i32 %73
}