; Function Attrs: nounwind uwtable
define internal fastcc i32 @id3v2_put_ttag(ptr noundef readonly captures(none) %0, ptr noundef %1, ptr noundef %2, ptr noundef %3, i32 noundef %4, i32 noundef range(i32 1, 4) %5) unnamed_addr #0 {
  %7 = alloca ptr, align 8
  %8 = alloca ptr, align 8
  call void @llvm.lifetime.start.p0(i64 8, ptr nonnull %7) #9
  call void @llvm.lifetime.start.p0(i64 8, ptr nonnull %8) #9
  %9 = call i32 @avio_open_dyn_buf(ptr noundef nonnull %8) #9
  %10 = icmp slt i32 %9, 0
  br i1 %10, label %47, label %11

11:                                               ; preds = %6
  %12 = icmp eq i32 %5, 1
  br i1 %12, label %.preheader39, label %19

.preheader39:                                     ; preds = %11, %.preheader39
  %.0.i = phi ptr [ %14, %.preheader39 ], [ %2, %11 ]
  %13 = load i8, ptr %.0.i, align 1, !tbaa !10
  %or.cond.i = icmp sgt i8 %13, 0
  %14 = getelementptr inbounds nuw i8, ptr %.0.i, i64 1
  br i1 %or.cond.i, label %.preheader39, label %string_is_ascii.exit, !llvm.loop !70

string_is_ascii.exit:                             ; preds = %.preheader39
  %.not5.i.not = icmp eq i8 %13, 0
  br i1 %.not5.i.not, label %15, label %19

15:                                               ; preds = %string_is_ascii.exit
  %.not27 = icmp eq ptr %3, null
  br i1 %.not27, label %18, label %.preheader

.preheader:                                       ; preds = %15, %.preheader
  %.0.i30 = phi ptr [ %17, %.preheader ], [ %3, %15 ]
  %16 = load i8, ptr %.0.i30, align 1, !tbaa !10
  %or.cond.i31 = icmp sgt i8 %16, 0
  %17 = getelementptr inbounds nuw i8, ptr %.0.i30, i64 1
  br i1 %or.cond.i31, label %.preheader, label %string_is_ascii.exit33, !llvm.loop !70

string_is_ascii.exit33:                           ; preds = %.preheader
  %.not5.i32.not = icmp eq i8 %16, 0
  br i1 %.not5.i32.not, label %18, label %19

18:                                               ; preds = %string_is_ascii.exit33, %15
  br label %19

19:                                               ; preds = %18, %string_is_ascii.exit33, %string_is_ascii.exit, %11
  %.022 = phi i32 [ 0, %18 ], [ 1, %string_is_ascii.exit33 ], [ 1, %string_is_ascii.exit ], [ %5, %11 ]
  %20 = load ptr, ptr %8, align 8, !tbaa !29
  call void @avio_w8(ptr noundef %20, i32 noundef %.022) #9
  %21 = load ptr, ptr %8, align 8, !tbaa !29
  %22 = icmp eq i32 %.022, 1
  br i1 %22, label %id3v2_encode_string.exit, label %id3v2_encode_string.exit.thread

id3v2_encode_string.exit:                         ; preds = %19
  call void @avio_wl16(ptr noundef %21, i32 noundef 65279) #9
  %23 = call i32 @avio_put_str16le(ptr noundef %21, ptr noundef %2) #9, !callees !71
  %.not29 = icmp eq ptr %3, null
  br i1 %.not29, label %30, label %26

id3v2_encode_string.exit.thread:                  ; preds = %19
  %24 = call i32 @avio_put_str(ptr noundef %21, ptr noundef %2) #9, !callees !71
  %.not2938 = icmp eq ptr %3, null
  br i1 %.not2938, label %30, label %.thread

.thread:                                          ; preds = %id3v2_encode_string.exit.thread
  %25 = load ptr, ptr %8, align 8, !tbaa !29
  br label %id3v2_encode_string.exit36

26:                                               ; preds = %id3v2_encode_string.exit
  %27 = load ptr, ptr %8, align 8, !tbaa !29
  call void @avio_wl16(ptr noundef %27, i32 noundef 65279) #9
  br label %id3v2_encode_string.exit36

id3v2_encode_string.exit36:                       ; preds = %.thread, %26
  %28 = phi ptr [ %27, %26 ], [ %25, %.thread ]
  %.0.i35 = phi ptr [ @avio_put_str16le, %26 ], [ @avio_put_str, %.thread ]
  %29 = call i32 %.0.i35(ptr noundef %28, ptr noundef nonnull %3) #9, !callees !71
  br label %30

30:                                               ; preds = %id3v2_encode_string.exit.thread, %id3v2_encode_string.exit36, %id3v2_encode_string.exit
  %31 = load ptr, ptr %8, align 8, !tbaa !29
  %32 = call i32 @avio_get_dyn_buf(ptr noundef %31, ptr noundef nonnull %7) #9
  call void @avio_wb32(ptr noundef %1, i32 noundef %4) #9
  %33 = load i32, ptr %0, align 8, !tbaa !4
  %34 = icmp eq i32 %33, 3
  br i1 %34, label %35, label %36

35:                                               ; preds = %30
  call void @avio_wb32(ptr noundef %1, i32 noundef %32) #9
  br label %44

36:                                               ; preds = %30
  %37 = lshr i32 %32, 21
  %38 = and i32 %37, 127
  call void @avio_w8(ptr noundef %1, i32 noundef %38) #9
  %39 = lshr i32 %32, 14
  %40 = and i32 %39, 127
  call void @avio_w8(ptr noundef %1, i32 noundef %40) #9
  %41 = lshr i32 %32, 7
  %42 = and i32 %41, 127
  call void @avio_w8(ptr noundef %1, i32 noundef %42) #9
  %43 = and i32 %32, 127
  call void @avio_w8(ptr noundef %1, i32 noundef %43) #9
  br label %44

44:                                               ; preds = %36, %35
  call void @avio_wb16(ptr noundef %1, i32 noundef 0) #9
  %45 = load ptr, ptr %7, align 8, !tbaa !33
  call void @avio_write(ptr noundef %1, ptr noundef %45, i32 noundef %32) #9
  call void @ffio_free_dyn_buf(ptr noundef nonnull %8) #9
  %46 = add nsw i32 %32, 10
  br label %47

47:                                               ; preds = %6, %44
  %.0 = phi i32 [ %46, %44 ], [ %9, %6 ]
  call void @llvm.lifetime.end.p0(i64 8, ptr nonnull %8) #9
  call void @llvm.lifetime.end.p0(i64 8, ptr nonnull %7) #9
  ret i32 %.0
}